target datalayout = "e-m:e-p270:32:32-p271:32:32-p272:64:64-i64:64-i128:128-f80:128-n8:16:32:64-S128"
target triple = "x86_64-pc-linux-gnu"

%struct.cpool = type { %struct.Curl_hash, i64, i64, i64, %struct.curltime, %struct.Curl_llist, ptr, ptr, ptr, ptr, i8 }
%struct.Curl_hash = type { ptr, ptr, ptr, ptr, i64, i64 }
%struct.curltime = type { i64, i32 }
%struct.Curl_llist = type { ptr, ptr, ptr, i64 }
%struct.Curl_easy = type { i32, i64, i64, ptr, %struct.Curl_llist_node, %struct.Curl_llist_node, i32, i32, %struct.Curl_message, %struct.easy_pollset, %struct.Names, ptr, ptr, ptr, %struct.SingleRequest, %struct.UserDefined, ptr, ptr, %struct.Progress, %struct.UrlState, ptr, %struct.PureInfo, %struct.curl_tlssessioninfo }
%struct.Curl_llist_node = type { ptr, ptr, ptr, ptr }
%struct.Curl_message = type { %struct.Curl_llist_node, %struct.CURLMsg }
%struct.CURLMsg = type { i32, ptr, %union.anon }
%union.anon = type { ptr }
%struct.easy_pollset = type { [5 x i32], i32, [5 x i8] }
%struct.Names = type { ptr, i32 }
%struct.SingleRequest = type <{ i64, i64, i64, i64, %struct.curltime, i32, i32, i32, i32, i64, i32, i32, i32, i32, ptr, ptr, %struct.bufq, i64, i64, ptr, ptr, %union.anon.0, ptr, i8, i32, [3 x i8] }>
%struct.bufq = type { ptr, ptr, ptr, ptr, i64, i64, i64, i32 }
%union.anon.0 = type { ptr }
%struct.UserDefined = type <{ ptr, ptr, ptr, ptr, ptr, ptr, i16, [6 x i8], i64, i64, i64, ptr, ptr, i64, i16, i16, [4 x i8], ptr, ptr, ptr, ptr, ptr, ptr, ptr, ptr, ptr, ptr, ptr, ptr, ptr, ptr, ptr, ptr, ptr, ptr, ptr, ptr, ptr, ptr, ptr, i32, i32, i32, i32, i32, [4 x i8], i64, i64, i64, i64, i64, i64, i64, i64, ptr, ptr, %struct.curl_mimepart, ptr, ptr, i64, i8, i8, i8, [5 x i8], %struct.ssl_config_data, %struct.ssl_config_data, ptr, i16, i8, i8, [4 x i8], %struct.ssl_general_config, i32, i32, i32, [4 x i8], ptr, ptr, i8, [7 x i8], i64, i8, i8, i8, i8, i32, ptr, ptr, ptr, i8, i8, [2 x i8], i32, [63 x ptr], [8 x ptr], i32, i32, i32, [4 x i8], ptr, ptr, ptr, ptr, ptr, i8, [3 x i8], i32, i32, i32, i64, %struct.Curl_data_priority, ptr, ptr, i64, ptr, i64, ptr, ptr, ptr, i8, [3 x i8], i32, i8, i8, i64, [6 x i8] }>
%struct.curl_mimepart = type { ptr, ptr, i32, i32, ptr, ptr, ptr, ptr, ptr, ptr, ptr, ptr, ptr, ptr, ptr, i64, %struct.mime_state, ptr, %struct.mime_encoder_state, i64 }
%struct.mime_state = type { i32, ptr, i64 }
%struct.mime_encoder_state = type { i64, i64, i64, [256 x i8] }
%struct.ssl_config_data = type { %struct.ssl_primary_config, i64, ptr, ptr, ptr, ptr, ptr, ptr, ptr, i16 }
%struct.ssl_primary_config = type { ptr, ptr, ptr, ptr, ptr, ptr, ptr, ptr, ptr, ptr, ptr, ptr, i8, i32, i8, i8 }
%struct.ssl_general_config = type { i64, i32 }
%struct.Curl_data_priority = type { ptr, ptr, i32, i8 }
%struct.Progress = type { i64, %struct.pgrs_dir, %struct.pgrs_dir, i64, i64, i32, i32, i64, i64, i64, i64, i64, i64, i64, i64, i64, %struct.curltime, %struct.curltime, %struct.curltime, %struct.curltime, [6 x i64], [6 x %struct.curltime], i32, i8 }
%struct.pgrs_dir = type { i64, i64, i64, %struct.pgrs_measure }
%struct.pgrs_measure = type { %struct.curltime, i64 }
%struct.UrlState = type { %struct.curltime, i64, i64, %struct.dynbuf, ptr, i64, ptr, i32, i32, i32, ptr, i64, i32, i64, i32, ptr, %struct.digestdata, %struct.digestdata, %struct.auth, %struct.auth, %struct.Curl_async, ptr, %struct.curltime, %struct.Curl_tree, %struct.Curl_llist, [15 x %struct.time_node], ptr, ptr, i64, i64, %struct.Curl_data_priority, ptr, ptr, ptr, %struct.urlpieces, ptr, ptr, ptr, ptr, ptr, i64, %struct.dynbuf, %struct.Curl_llist, [2 x %struct.curl_header], ptr, i32, ptr, ptr, %struct.store_netrc, %struct.dynamically_allocated_data, i8, i8, i8, i8, i32 }
%struct.digestdata = type { ptr, ptr, ptr, ptr, ptr, ptr, i32, i8, i8 }
%struct.auth = type { i64, i64, i64, i8 }
%struct.Curl_async = type { ptr, ptr, ptr, ptr, i32, i32, i8 }
%struct.Curl_tree = type { ptr, ptr, ptr, ptr, %struct.curltime, ptr }
%struct.time_node = type { %struct.Curl_llist_node, %struct.curltime, i32 }
%struct.urlpieces = type { ptr, ptr, ptr, ptr, ptr, ptr, ptr, ptr }
%struct.dynbuf = type { ptr, i64, i64, i64 }
%struct.curl_header = type { ptr, ptr, i64, i64, i32, ptr }
%struct.store_netrc = type { %struct.dynbuf, ptr, i8 }
%struct.dynamically_allocated_data = type { ptr, ptr, ptr, ptr, ptr, ptr, ptr, ptr, ptr, ptr, ptr, ptr, ptr }
%struct.PureInfo = type { i32, i32, i32, i64, i64, i64, i64, i64, ptr, ptr, i64, i32, %struct.ip_quadruple, i32, ptr, i32, %struct.curl_certinfo, i32, i8 }
%struct.ip_quadruple = type { [46 x i8], [46 x i8], i32, i32 }
%struct.curl_certinfo = type { i32, ptr }
%struct.curl_tlssessioninfo = type { i32, ptr }
%struct.Curl_share = type { i32, i32, i32, ptr, ptr, ptr, %struct.cpool, %struct.Curl_hash, ptr, ptr, ptr, i64, i64 }
%struct.Curl_multi = type { i32, i32, i32, %struct.Curl_llist, %struct.Curl_llist, %struct.Curl_llist, %struct.Curl_llist, i64, ptr, ptr, ptr, ptr, %struct.Curl_hash, ptr, ptr, i64, ptr, i64, ptr, i64, %struct.Curl_hash, %struct.Curl_hash, %struct.cpool, i64, i64, i64, ptr, ptr, i64, %struct.curltime, [2 x i32], i32, i32, i8, i8 }
%struct.cpool_bundle = type { %struct.Curl_llist, i64, [1 x ptr] }
%struct.Curl_hash_iterator = type { ptr, i64, ptr }
%struct.Curl_hash_element = type { %struct.Curl_llist_node, ptr, ptr, i64, [1 x i8] }
%struct.cpool_do_conn_ctx = type { i64, ptr, ptr }

; Function Attrs: nounwind uwtable
define internal zeroext i1 @cpool_foreach(ptr noundef %0, ptr noundef %1, ptr noundef %2, ptr noundef %3) #0 {
  %5 = alloca i1, align 1
  %6 = alloca ptr, align 8
  %7 = alloca ptr, align 8
  %8 = alloca ptr, align 8
  %9 = alloca ptr, align 8
  %10 = alloca %struct.Curl_hash_iterator, align 8
  %11 = alloca ptr, align 8
  %12 = alloca i32, align 4
  %13 = alloca ptr, align 8
  %14 = alloca ptr, align 8
  %15 = alloca ptr, align 8
  store ptr %0, ptr %6, align 8, !tbaa !97
  store ptr %1, ptr %7, align 8, !tbaa !4
  store ptr %2, ptr %8, align 8, !tbaa !9
  store ptr %3, ptr %9, align 8, !tbaa !9
  call void @llvm.lifetime.start.p0(i64 24, ptr %10) #6
  call void @llvm.lifetime.start.p0(i64 8, ptr %11) #6
  %16 = load ptr, ptr %7, align 8, !tbaa !4
  %17 = icmp ne ptr %16, null
  br i1 %17, label %19, label %18

18:                                               ; preds = %4
  store i1 false, ptr %5, align 1
  store i32 1, ptr %12, align 4
  br label %58

19:                                               ; preds = %4
  %20 = load ptr, ptr %7, align 8, !tbaa !4
  %21 = getelementptr inbounds nuw %struct.cpool, ptr %20, i32 0, i32 0
  call void @Curl_hash_start_iterate(ptr noundef %21, ptr noundef %10)
  %22 = call ptr @Curl_hash_next_element(ptr noundef %10)
  store ptr %22, ptr %11, align 8, !tbaa !133
  br label %23

23:                                               ; preds = %56, %19
  %24 = load ptr, ptr %11, align 8, !tbaa !133
  %25 = icmp ne ptr %24, null
  br i1 %25, label %26, label %57

26:                                               ; preds = %23
  call void @llvm.lifetime.start.p0(i64 8, ptr %13) #6
  call void @llvm.lifetime.start.p0(i64 8, ptr %14) #6
  %27 = load ptr, ptr %11, align 8, !tbaa !133
  %28 = getelementptr inbounds nuw %struct.Curl_hash_element, ptr %27, i32 0, i32 1
  %29 = load ptr, ptr %28, align 8, !tbaa !135
  store ptr %29, ptr %14, align 8, !tbaa !107
  %30 = call ptr @Curl_hash_next_element(ptr noundef %10)
  store ptr %30, ptr %11, align 8, !tbaa !133
  %31 = load ptr, ptr %14, align 8, !tbaa !107
  %32 = getelementptr inbounds nuw %struct.cpool_bundle, ptr %31, i32 0, i32 0
  %33 = call ptr @Curl_llist_head(ptr noundef %32)
  store ptr %33, ptr %13, align 8, !tbaa !123
  br label %34

34:                                               ; preds = %52, %26
  %35 = load ptr, ptr %13, align 8, !tbaa !123
  %36 = icmp ne ptr %35, null
  br i1 %36, label %37, label %53

37:                                               ; preds = %34
  call void @llvm.lifetime.start.p0(i64 8, ptr %15) #6
  %38 = load ptr, ptr %13, align 8, !tbaa !123
  %39 = call ptr @Curl_node_elem(ptr noundef %38)
  store ptr %39, ptr %15, align 8, !tbaa !93
  %40 = load ptr, ptr %13, align 8, !tbaa !123
  %41 = call ptr @Curl_node_next(ptr noundef %40)
  store ptr %41, ptr %13, align 8, !tbaa !123
  %42 = load ptr, ptr %9, align 8, !tbaa !9
  %43 = load ptr, ptr %6, align 8, !tbaa !97
  %44 = load ptr, ptr %15, align 8, !tbaa !93
  %45 = load ptr, ptr %8, align 8, !tbaa !9
  %46 = call i32 %42(ptr noundef %43, ptr noundef %44, ptr noundef %45)
  %47 = icmp eq i32 1, %46
  br i1 %47, label %48, label %49

48:                                               ; preds = %37
  store i1 true, ptr %5, align 1
  store i32 1, ptr %12, align 4
  br label %50

49:                                               ; preds = %37
  store i32 0, ptr %12, align 4
  br label %50

50:                                               ; preds = %49, %48
  call void @llvm.lifetime.end.p0(i64 8, ptr %15) #6
  %51 = load i32, ptr %12, align 4
  switch i32 %51, label %54 [
    i32 0, label %52
  ]

52:                                               ; preds = %50
  br label %34, !llvm.loop !165

53:                                               ; preds = %34
  store i32 0, ptr %12, align 4
  br label %54

54:                                               ; preds = %53, %50
  call void @llvm.lifetime.end.p0(i64 8, ptr %14) #6
  call void @llvm.lifetime.end.p0(i64 8, ptr %13) #6
  %55 = load i32, ptr %12, align 4
  switch i32 %55, label %58 [
    i32 0, label %56
  ]

56:                                               ; preds = %54
  br label %23, !llvm.loop !166

57:                                               ; preds = %23
  store i1 false, ptr %5, align 1
  store i32 1, ptr %12, align 4
  br label %58

58:                                               ; preds = %57, %54, %18
  call void @llvm.lifetime.end.p0(i64 8, ptr %11) #6
  call void @llvm.lifetime.end.p0(i64 24, ptr %10) #6
  %59 = load i1, ptr %5, align 1
  ret i1 %59
}

; Function Attrs: nounwind uwtable
define internal ptr @cpool_get_instance(ptr noundef %0) #0 {
  %2 = alloca ptr, align 8
  %3 = alloca ptr, align 8
  store ptr %0, ptr %3, align 8, !tbaa !97
  %4 = load ptr, ptr %3, align 8, !tbaa !97
  %5 = icmp ne ptr %4, null
  br i1 %5, label %6, label %47

6:                                                ; preds = %1
  %7 = load ptr, ptr %3, align 8, !tbaa !97
  %8 = getelementptr inbounds nuw %struct.Curl_easy, ptr %7, i32 0, i32 13
  %9 = load ptr, ptr %8, align 8, !tbaa !89
  %10 = icmp ne ptr %9, null
  br i1 %10, label %11, label %24

11:                                               ; preds = %6
  %12 = load ptr, ptr %3, align 8, !tbaa !97
  %13 = getelementptr inbounds nuw %struct.Curl_easy, ptr %12, i32 0, i32 13
  %14 = load ptr, ptr %13, align 8, !tbaa !89
  %15 = getelementptr inbounds nuw %struct.Curl_share, ptr %14, i32 0, i32 1
  %16 = load i32, ptr %15, align 4, !tbaa !91
  %17 = and i32 %16, 32
  %18 = icmp ne i32 %17, 0
  br i1 %18, label %19, label %24

19:                                               ; preds = %11
  %20 = load ptr, ptr %3, align 8, !tbaa !97
  %21 = getelementptr inbounds nuw %struct.Curl_easy, ptr %20, i32 0, i32 13
  %22 = load ptr, ptr %21, align 8, !tbaa !89
  %23 = getelementptr inbounds nuw %struct.Curl_share, ptr %22, i32 0, i32 6
  store ptr %23, ptr %2, align 8
  br label %48

24:                                               ; preds = %11, %6
  %25 = load ptr, ptr %3, align 8, !tbaa !97
  %26 = getelementptr inbounds nuw %struct.Curl_easy, ptr %25, i32 0, i32 12
  %27 = load ptr, ptr %26, align 8, !tbaa !103
  %28 = icmp ne ptr %27, null
  br i1 %28, label %29, label %34

29:                                               ; preds = %24
  %30 = load ptr, ptr %3, align 8, !tbaa !97
  %31 = getelementptr inbounds nuw %struct.Curl_easy, ptr %30, i32 0, i32 12
  %32 = load ptr, ptr %31, align 8, !tbaa !103
  %33 = getelementptr inbounds nuw %struct.Curl_multi, ptr %32, i32 0, i32 22
  store ptr %33, ptr %2, align 8
  br label %48

34:                                               ; preds = %24
  %35 = load ptr, ptr %3, align 8, !tbaa !97
  %36 = getelementptr inbounds nuw %struct.Curl_easy, ptr %35, i32 0, i32 11
  %37 = load ptr, ptr %36, align 8, !tbaa !25
  %38 = icmp ne ptr %37, null
  br i1 %38, label %39, label %44

39:                                               ; preds = %34
  %40 = load ptr, ptr %3, align 8, !tbaa !97
  %41 = getelementptr inbounds nuw %struct.Curl_easy, ptr %40, i32 0, i32 11
  %42 = load ptr, ptr %41, align 8, !tbaa !25
  %43 = getelementptr inbounds nuw %struct.Curl_multi, ptr %42, i32 0, i32 22
  store ptr %43, ptr %2, align 8
  br label %48

44:                                               ; preds = %34
  br label %45

45:                                               ; preds = %44
  br label %46

46:                                               ; preds = %45
  br label %47

47:                                               ; preds = %46, %1
  store ptr null, ptr %2, align 8
  br label %48

48:                                               ; preds = %47, %39, %29, %19
  %49 = load ptr, ptr %2, align 8
  ret ptr %49
}

; Function Attrs: nounwind uwtable
define dso_local void @Curl_cpool_do_by_id(ptr noundef %0, i64 noundef %1, ptr noundef %2, ptr noundef %3) #0 {
  %5 = alloca ptr, align 8
  %6 = alloca i64, align 8
  %7 = alloca ptr, align 8
  %8 = alloca ptr, align 8
  %9 = alloca ptr, align 8
  %10 = alloca %struct.cpool_do_conn_ctx, align 8
  %11 = alloca i32, align 4
  store ptr %0, ptr %5, align 8, !tbaa !97
  store i64 %1, ptr %6, align 8, !tbaa !14
  store ptr %2, ptr %7, align 8, !tbaa !9
  store ptr %3, ptr %8, align 8, !tbaa !9
  call void @llvm.lifetime.start.p0(i64 8, ptr %9) #6
  %12 = load ptr, ptr %5, align 8, !tbaa !97
  %13 = call ptr @cpool_get_instance(ptr noundef %12)
  store ptr %13, ptr %9, align 8, !tbaa !4
  call void @llvm.lifetime.start.p0(i64 24, ptr %10) #6
  %14 = load ptr, ptr %9, align 8, !tbaa !4
  %15 = icmp ne ptr %14, null
  br i1 %15, label %17, label %16

16:                                               ; preds = %4
  store i32 1, ptr %11, align 4
  br label %93

17:                                               ; preds = %4
  %18 = load i64, ptr %6, align 8, !tbaa !14
  %19 = getelementptr inbounds nuw %struct.cpool_do_conn_ctx, ptr %10, i32 0, i32 0
  store i64 %18, ptr %19, align 8, !tbaa !174
  %20 = load ptr, ptr %7, align 8, !tbaa !9
  %21 = getelementptr inbounds nuw %struct.cpool_do_conn_ctx, ptr %10, i32 0, i32 1
  store ptr %20, ptr %21, align 8, !tbaa !176
  %22 = load ptr, ptr %8, align 8, !tbaa !9
  %23 = getelementptr inbounds nuw %struct.cpool_do_conn_ctx, ptr %10, i32 0, i32 2
  store ptr %22, ptr %23, align 8, !tbaa !177
  br label %24

24:                                               ; preds = %17
  %25 = load ptr, ptr %9, align 8, !tbaa !4
  %26 = icmp ne ptr %25, null
  br i1 %26, label %27, label %54

27:                                               ; preds = %24
  %28 = load ptr, ptr %9, align 8, !tbaa !4
  %29 = getelementptr inbounds nuw %struct.cpool, ptr %28, i32 0, i32 8
  %30 = load ptr, ptr %29, align 8, !tbaa !88
  %31 = icmp ne ptr %30, null
  br i1 %31, label %32, label %45

32:                                               ; preds = %27
  %33 = load ptr, ptr %9, align 8, !tbaa !4
  %34 = getelementptr inbounds nuw %struct.cpool, ptr %33, i32 0, i32 8
  %35 = load ptr, ptr %34, align 8, !tbaa !88
  %36 = getelementptr inbounds nuw %struct.Curl_share, ptr %35, i32 0, i32 1
  %37 = load i32, ptr %36, align 4, !tbaa !91
  %38 = and i32 %37, 32
  %39 = icmp ne i32 %38, 0
  br i1 %39, label %40, label %45

40:                                               ; preds = %32
  %41 = load ptr, ptr %9, align 8, !tbaa !4
  %42 = getelementptr inbounds nuw %struct.cpool, ptr %41, i32 0, i32 6
  %43 = load ptr, ptr %42, align 8, !tbaa !16
  %44 = call i32 @Curl_share_lock(ptr noundef %43, i32 noundef 5, i32 noundef 2)
  br label %45

45:                                               ; preds = %40, %32, %27
  br label %46

46:                                               ; preds = %45
  br label %47

47:                                               ; preds = %46
  br label %48

48:                                               ; preds = %47
  %49 = load ptr, ptr %9, align 8, !tbaa !4
  %50 = getelementptr inbounds nuw %struct.cpool, ptr %49, i32 0, i32 10
  %51 = load i8, ptr %50, align 8
  %52 = and i8 %51, -2
  %53 = or i8 %52, 1
  store i8 %53, ptr %50, align 8
  br label %54

54:                                               ; preds = %48, %24
  br label %55

55:                                               ; preds = %54
  br label %56

56:                                               ; preds = %55
  %57 = load ptr, ptr %5, align 8, !tbaa !97
  %58 = load ptr, ptr %9, align 8, !tbaa !4
  %59 = call zeroext i1 @cpool_foreach(ptr noundef %57, ptr noundef %58, ptr noundef %10, ptr noundef @cpool_do_conn)
  br label %60

60:                                               ; preds = %56
  %61 = load ptr, ptr %9, align 8, !tbaa !4
  %62 = icmp ne ptr %61, null
  br i1 %62, label %63, label %90

63:                                               ; preds = %60
  br label %64

64:                                               ; preds = %63
  br label %65

65:                                               ; preds = %64
  br label %66

66:                                               ; preds = %65
  %67 = load ptr, ptr %9, align 8, !tbaa !4
  %68 = getelementptr inbounds nuw %struct.cpool, ptr %67, i32 0, i32 10
  %69 = load i8, ptr %68, align 8
  %70 = and i8 %69, -2
  %71 = or i8 %70, 0
  store i8 %71, ptr %68, align 8
  %72 = load ptr, ptr %9, align 8, !tbaa !4
  %73 = getelementptr inbounds nuw %struct.cpool, ptr %72, i32 0, i32 8
  %74 = load ptr, ptr %73, align 8, !tbaa !88
  %75 = icmp ne ptr %74, null
  br i1 %75, label %76, label %89

76:                                               ; preds = %66
  %77 = load ptr, ptr %9, align 8, !tbaa !4
  %78 = getelementptr inbounds nuw %struct.cpool, ptr %77, i32 0, i32 8
  %79 = load ptr, ptr %78, align 8, !tbaa !88
  %80 = getelementptr inbounds nuw %struct.Curl_share, ptr %79, i32 0, i32 1
  %81 = load i32, ptr %80, align 4, !tbaa !91
  %82 = and i32 %81, 32
  %83 = icmp ne i32 %82, 0
  br i1 %83, label %84, label %89

84:                                               ; preds = %76
  %85 = load ptr, ptr %9, align 8, !tbaa !4
  %86 = getelementptr inbounds nuw %struct.cpool, ptr %85, i32 0, i32 6
  %87 = load ptr, ptr %86, align 8, !tbaa !16
  %88 = call i32 @Curl_share_unlock(ptr noundef %87, i32 noundef 5)
  br label %89

89:                                               ; preds = %84, %76, %66
  br label %90

90:                                               ; preds = %89, %60
  br label %91

91:                                               ; preds = %90
  br label %92

92:                                               ; preds = %91
  store i32 0, ptr %11, align 4
  br label %93

93:                                               ; preds = %92, %16
  call void @llvm.lifetime.end.p0(i64 24, ptr %10) #6
  call void @llvm.lifetime.end.p0(i64 8, ptr %9) #6
  %94 = load i32, ptr %11, align 4
  switch i32 %94, label %96 [
    i32 0, label %95
    i32 1, label %95
  ]

95:                                               ; preds = %93, %93
  ret void

96:                                               ; preds = %93
  unreachable
}